target datalayout = "e-m:e-p270:32:32-p271:32:32-p272:64:64-i64:64-i128:128-f80:128-n8:16:32:64-S128"
target triple = "x86_64-pc-linux-gnu"

%struct.SDL_DBusContext = type { ptr, ptr, ptr, ptr, ptr, ptr, ptr, ptr, ptr, ptr, ptr, ptr, ptr, ptr, ptr, ptr, ptr, ptr, ptr, ptr, ptr, ptr, ptr, ptr, ptr, ptr, ptr, ptr, ptr, ptr, ptr, ptr, ptr, ptr, ptr, ptr, ptr, ptr, ptr, ptr, ptr, ptr, ptr, ptr, ptr, ptr, ptr, ptr, ptr, ptr }
%struct.DBusMessageIter = type { ptr, ptr, i32, i32, i32, i32, i32, i32, i32, i32, i32, i32, ptr, ptr }

@.str.3 = private unnamed_addr constant [12 x i8] c"cursor-size\00", align 1
@dbus_cursor_size = internal global i32 0, align 4
@.str.4 = private unnamed_addr constant [13 x i8] c"cursor-theme\00", align 1
@dbus_cursor_theme = internal global ptr null, align 8
@.str.6 = private unnamed_addr constant [28 x i8] c"org.gnome.desktop.interface\00", align 1
@.str.9 = private unnamed_addr constant [32 x i8] c"org.freedesktop.portal.Settings\00", align 1
@.str.11 = private unnamed_addr constant [15 x i8] c"SettingChanged\00", align 1

; Function Attrs: nounwind uwtable
define internal i32 @Wayland_DBusCursorMessageFilter(ptr noundef %0, ptr noundef %1, ptr noundef %2) #0 {
  %4 = alloca i32, align 4
  %5 = alloca ptr, align 8
  %6 = alloca ptr, align 8
  %7 = alloca ptr, align 8
  %8 = alloca ptr, align 8
  %9 = alloca ptr, align 8
  %10 = alloca %struct.DBusMessageIter, align 8
  %11 = alloca %struct.DBusMessageIter, align 8
  %12 = alloca ptr, align 8
  %13 = alloca ptr, align 8
  %14 = alloca i32, align 4
  %15 = alloca i32, align 4
  %16 = alloca ptr, align 8
  store ptr %0, ptr %5, align 8
  store ptr %1, ptr %6, align 8
  store ptr %2, ptr %7, align 8
  call void @llvm.lifetime.start.p0(i64 8, ptr %8) #7
  %17 = call ptr @SDL_DBus_GetContext()
  store ptr %17, ptr %8, align 8
  call void @llvm.lifetime.start.p0(i64 8, ptr %9) #7
  %18 = load ptr, ptr %7, align 8
  store ptr %18, ptr %9, align 8
  %19 = load ptr, ptr %8, align 8
  %20 = getelementptr inbounds nuw %struct.SDL_DBusContext, ptr %19, i32 0, i32 22
  %21 = load ptr, ptr %20, align 8
  %22 = load ptr, ptr %6, align 8
  %23 = call i32 %21(ptr noundef %22, ptr noundef @.str.9, ptr noundef @.str.11)
  %24 = icmp ne i32 %23, 0
  br i1 %24, label %25, label %164

25:                                               ; preds = %3
  call void @llvm.lifetime.start.p0(i64 72, ptr %10) #7
  call void @llvm.lifetime.start.p0(i64 72, ptr %11) #7
  call void @llvm.lifetime.start.p0(i64 8, ptr %12) #7
  call void @llvm.lifetime.start.p0(i64 8, ptr %13) #7
  %26 = load ptr, ptr %8, align 8
  %27 = getelementptr inbounds nuw %struct.SDL_DBusContext, ptr %26, i32 0, i32 34
  %28 = load ptr, ptr %27, align 8
  %29 = load ptr, ptr %6, align 8
  %30 = call i32 %28(ptr noundef %29, ptr noundef %10)
  %31 = load ptr, ptr %8, align 8
  %32 = getelementptr inbounds nuw %struct.SDL_DBusContext, ptr %31, i32 0, i32 37
  %33 = load ptr, ptr %32, align 8
  %34 = call i32 %33(ptr noundef %10)
  %35 = icmp ne i32 %34, 115
  br i1 %35, label %36, label %37

36:                                               ; preds = %25
  store i32 2, ptr %15, align 4
  br label %162

37:                                               ; preds = %25
  %38 = load ptr, ptr %8, align 8
  %39 = getelementptr inbounds nuw %struct.SDL_DBusContext, ptr %38, i32 0, i32 36
  %40 = load ptr, ptr %39, align 8
  call void %40(ptr noundef %10, ptr noundef %12)
  %41 = load ptr, ptr %12, align 8
  %42 = call i32 @SDL_strcmp_REAL(ptr noundef @.str.6, ptr noundef %41)
  %43 = icmp ne i32 %42, 0
  br i1 %43, label %44, label %45

44:                                               ; preds = %37
  store i32 2, ptr %15, align 4
  br label %162

45:                                               ; preds = %37
  %46 = load ptr, ptr %8, align 8
  %47 = getelementptr inbounds nuw %struct.SDL_DBusContext, ptr %46, i32 0, i32 35
  %48 = load ptr, ptr %47, align 8
  %49 = call i32 %48(ptr noundef %10)
  %50 = icmp ne i32 %49, 0
  br i1 %50, label %52, label %51

51:                                               ; preds = %45
  store i32 2, ptr %15, align 4
  br label %162

52:                                               ; preds = %45
  %53 = load ptr, ptr %8, align 8
  %54 = getelementptr inbounds nuw %struct.SDL_DBusContext, ptr %53, i32 0, i32 37
  %55 = load ptr, ptr %54, align 8
  %56 = call i32 %55(ptr noundef %10)
  %57 = icmp ne i32 %56, 115
  br i1 %57, label %58, label %59

58:                                               ; preds = %52
  store i32 2, ptr %15, align 4
  br label %162

59:                                               ; preds = %52
  %60 = load ptr, ptr %8, align 8
  %61 = getelementptr inbounds nuw %struct.SDL_DBusContext, ptr %60, i32 0, i32 36
  %62 = load ptr, ptr %61, align 8
  call void %62(ptr noundef %10, ptr noundef %13)
  %63 = load ptr, ptr %13, align 8
  %64 = call i32 @SDL_strcmp_REAL(ptr noundef @.str.3, ptr noundef %63)
  %65 = icmp eq i32 %64, 0
  br i1 %65, label %66, label %103

66:                                               ; preds = %59
  call void @llvm.lifetime.start.p0(i64 4, ptr %14) #7
  %67 = load ptr, ptr %8, align 8
  %68 = getelementptr inbounds nuw %struct.SDL_DBusContext, ptr %67, i32 0, i32 35
  %69 = load ptr, ptr %68, align 8
  %70 = call i32 %69(ptr noundef %10)
  %71 = icmp ne i32 %70, 0
  br i1 %71, label %73, label %72

72:                                               ; preds = %66
  store i32 2, ptr %15, align 4
  br label %100

73:                                               ; preds = %66
  %74 = load ptr, ptr %8, align 8
  %75 = getelementptr inbounds nuw %struct.SDL_DBusContext, ptr %74, i32 0, i32 37
  %76 = load ptr, ptr %75, align 8
  %77 = call i32 %76(ptr noundef %10)
  %78 = icmp ne i32 %77, 118
  br i1 %78, label %79, label %80

79:                                               ; preds = %73
  store i32 2, ptr %15, align 4
  br label %100

80:                                               ; preds = %73
  %81 = load ptr, ptr %8, align 8
  %82 = getelementptr inbounds nuw %struct.SDL_DBusContext, ptr %81, i32 0, i32 38
  %83 = load ptr, ptr %82, align 8
  call void %83(ptr noundef %10, ptr noundef %11)
  %84 = load ptr, ptr %8, align 8
  %85 = getelementptr inbounds nuw %struct.SDL_DBusContext, ptr %84, i32 0, i32 37
  %86 = load ptr, ptr %85, align 8
  %87 = call i32 %86(ptr noundef %11)
  %88 = icmp ne i32 %87, 105
  br i1 %88, label %89, label %90

89:                                               ; preds = %80
  store i32 2, ptr %15, align 4
  br label %100

90:                                               ; preds = %80
  %91 = load ptr, ptr %8, align 8
  %92 = getelementptr inbounds nuw %struct.SDL_DBusContext, ptr %91, i32 0, i32 36
  %93 = load ptr, ptr %92, align 8
  call void %93(ptr noundef %11, ptr noundef %14)
  %94 = load i32, ptr @dbus_cursor_size, align 4
  %95 = load i32, ptr %14, align 4
  %96 = icmp ne i32 %94, %95
  br i1 %96, label %97, label %99

97:                                               ; preds = %90
  %98 = load i32, ptr %14, align 4
  store i32 %98, ptr @dbus_cursor_size, align 4
  call void @SDL_RedrawCursor()
  br label %99

99:                                               ; preds = %97, %90
  store i32 0, ptr %15, align 4
  br label %100

100:                                              ; preds = %89, %79, %72, %99
  call void @llvm.lifetime.end.p0(i64 4, ptr %14) #7
  %101 = load i32, ptr %15, align 4
  switch i32 %101, label %162 [
    i32 0, label %102
  ]

102:                                              ; preds = %100
  br label %161

103:                                              ; preds = %59
  %104 = load ptr, ptr %13, align 8
  %105 = call i32 @SDL_strcmp_REAL(ptr noundef @.str.4, ptr noundef %104)
  %106 = icmp eq i32 %105, 0
  br i1 %106, label %107, label %159

107:                                              ; preds = %103
  call void @llvm.lifetime.start.p0(i64 8, ptr %16) #7
  store ptr null, ptr %16, align 8
  %108 = load ptr, ptr %8, align 8
  %109 = getelementptr inbounds nuw %struct.SDL_DBusContext, ptr %108, i32 0, i32 35
  %110 = load ptr, ptr %109, align 8
  %111 = call i32 %110(ptr noundef %10)
  %112 = icmp ne i32 %111, 0
  br i1 %112, label %114, label %113

113:                                              ; preds = %107
  store i32 2, ptr %15, align 4
  br label %156

114:                                              ; preds = %107
  %115 = load ptr, ptr %8, align 8
  %116 = getelementptr inbounds nuw %struct.SDL_DBusContext, ptr %115, i32 0, i32 37
  %117 = load ptr, ptr %116, align 8
  %118 = call i32 %117(ptr noundef %10)
  %119 = icmp ne i32 %118, 118
  br i1 %119, label %120, label %121

120:                                              ; preds = %114
  store i32 2, ptr %15, align 4
  br label %156

121:                                              ; preds = %114
  %122 = load ptr, ptr %8, align 8
  %123 = getelementptr inbounds nuw %struct.SDL_DBusContext, ptr %122, i32 0, i32 38
  %124 = load ptr, ptr %123, align 8
  call void %124(ptr noundef %10, ptr noundef %11)
  %125 = load ptr, ptr %8, align 8
  %126 = getelementptr inbounds nuw %struct.SDL_DBusContext, ptr %125, i32 0, i32 37
  %127 = load ptr, ptr %126, align 8
  %128 = call i32 %127(ptr noundef %11)
  %129 = icmp ne i32 %128, 115
  br i1 %129, label %130, label %131

130:                                              ; preds = %121
  store i32 2, ptr %15, align 4
  br label %156

131:                                              ; preds = %121
  %132 = load ptr, ptr %8, align 8
  %133 = getelementptr inbounds nuw %struct.SDL_DBusContext, ptr %132, i32 0, i32 36
  %134 = load ptr, ptr %133, align 8
  call void %134(ptr noundef %11, ptr noundef %16)
  %135 = load ptr, ptr @dbus_cursor_theme, align 8
  %136 = icmp ne ptr %135, null
  br i1 %136, label %137, label %145

137:                                              ; preds = %131
  %138 = load ptr, ptr %16, align 8
  %139 = icmp ne ptr %138, null
  br i1 %139, label %140, label %145

140:                                              ; preds = %137
  %141 = load ptr, ptr @dbus_cursor_theme, align 8
  %142 = load ptr, ptr %16, align 8
  %143 = call i32 @SDL_strcmp_REAL(ptr noundef %141, ptr noundef %142)
  %144 = icmp ne i32 %143, 0
  br i1 %144, label %145, label %155

145:                                              ; preds = %140, %137, %131
  %146 = load ptr, ptr @dbus_cursor_theme, align 8
  call void @SDL_free_REAL(ptr noundef %146)
  %147 = load ptr, ptr %16, align 8
  %148 = icmp ne ptr %147, null
  br i1 %148, label %149, label %152

149:                                              ; preds = %145
  %150 = load ptr, ptr %16, align 8
  %151 = call noalias ptr @SDL_strdup_REAL(ptr noundef %150)
  store ptr %151, ptr @dbus_cursor_theme, align 8
  br label %153

152:                                              ; preds = %145
  store ptr null, ptr @dbus_cursor_theme, align 8
  br label %153

153:                                              ; preds = %152, %149
  %154 = load ptr, ptr %9, align 8
  call void @Wayland_FreeCursorThemes(ptr noundef %154)
  call void @SDL_RedrawCursor()
  br label %155

155:                                              ; preds = %153, %140
  store i32 0, ptr %15, align 4
  br label %156

156:                                              ; preds = %130, %120, %113, %155
  call void @llvm.lifetime.end.p0(i64 8, ptr %16) #7
  %157 = load i32, ptr %15, align 4
  switch i32 %157, label %162 [
    i32 0, label %158
  ]

158:                                              ; preds = %156
  br label %160

159:                                              ; preds = %103
  store i32 2, ptr %15, align 4
  br label %162

160:                                              ; preds = %158
  br label %161

161:                                              ; preds = %160, %102
  store i32 0, ptr %4, align 4
  store i32 1, ptr %15, align 4
  br label %162

162:                                              ; preds = %159, %58, %51, %44, %36, %161, %156, %100
  call void @llvm.lifetime.end.p0(i64 8, ptr %13) #7
  call void @llvm.lifetime.end.p0(i64 8, ptr %12) #7
  call void @llvm.lifetime.end.p0(i64 72, ptr %11) #7
  call void @llvm.lifetime.end.p0(i64 72, ptr %10) #7
  %163 = load i32, ptr %15, align 4
  switch i32 %163, label %166 [
    i32 2, label %165
  ]

164:                                              ; preds = %3
  br label %165

165:                                              ; preds = %164, %162
  store i32 1, ptr %4, align 4
  store i32 1, ptr %15, align 4
  br label %166

166:                                              ; preds = %165, %162
  call void @llvm.lifetime.end.p0(i64 8, ptr %9) #7
  call void @llvm.lifetime.end.p0(i64 8, ptr %8) #7
  %167 = load i32, ptr %4, align 4
  ret i32 %167
}