; Function Attrs: nounwind uwtable
define internal range(i32 0, 2) i32 @Wayland_DBusCursorMessageFilter(ptr readnone captures(none) %0, ptr noundef %1, ptr noundef captures(none) %2) #0 {
  %4 = alloca %struct.DBusMessageIter, align 8
  %5 = alloca %struct.DBusMessageIter, align 8
  %6 = alloca ptr, align 8
  %7 = alloca ptr, align 8
  %8 = alloca i32, align 4
  %9 = alloca ptr, align 8
  %10 = tail call ptr @SDL_DBus_GetContext() #6
  %11 = getelementptr inbounds nuw i8, ptr %10, i64 176
  %12 = load ptr, ptr %11, align 8
  %13 = tail call i32 %12(ptr noundef %1, ptr noundef nonnull @.str.9, ptr noundef nonnull @.str.11) #6
  %.not = icmp eq i32 %13, 0
  br i1 %.not, label %85, label %14

14:                                               ; preds = %3
  call void @llvm.lifetime.start.p0(i64 72, ptr nonnull %4) #6
  call void @llvm.lifetime.start.p0(i64 72, ptr nonnull %5) #6
  call void @llvm.lifetime.start.p0(i64 8, ptr nonnull %6) #6
  call void @llvm.lifetime.start.p0(i64 8, ptr nonnull %7) #6
  %15 = getelementptr inbounds nuw i8, ptr %10, i64 272
  %16 = load ptr, ptr %15, align 8
  %17 = call i32 %16(ptr noundef %1, ptr noundef nonnull %4) #6
  %18 = getelementptr inbounds nuw i8, ptr %10, i64 296
  %19 = load ptr, ptr %18, align 8
  %20 = call i32 %19(ptr noundef nonnull %4) #6
  %.not33 = icmp eq i32 %20, 115
  br i1 %.not33, label %21, label %.sink.split

21:                                               ; preds = %14
  %22 = getelementptr inbounds nuw i8, ptr %10, i64 288
  %23 = load ptr, ptr %22, align 8
  call void %23(ptr noundef nonnull %4, ptr noundef nonnull %6) #6
  %24 = load ptr, ptr %6, align 8
  %25 = call i32 @SDL_strcmp_REAL(ptr noundef nonnull @.str.6, ptr noundef %24) #6
  %.not34 = icmp eq i32 %25, 0
  br i1 %.not34, label %26, label %.sink.split

26:                                               ; preds = %21
  %27 = getelementptr inbounds nuw i8, ptr %10, i64 280
  %28 = load ptr, ptr %27, align 8
  %29 = call i32 %28(ptr noundef nonnull %4) #6
  %.not35 = icmp eq i32 %29, 0
  br i1 %.not35, label %.sink.split, label %30

30:                                               ; preds = %26
  %31 = load ptr, ptr %18, align 8
  %32 = call i32 %31(ptr noundef nonnull %4) #6
  %.not36 = icmp eq i32 %32, 115
  br i1 %.not36, label %33, label %.sink.split

33:                                               ; preds = %30
  %34 = load ptr, ptr %22, align 8
  call void %34(ptr noundef nonnull %4, ptr noundef nonnull %7) #6
  %35 = load ptr, ptr %7, align 8
  %36 = call i32 @SDL_strcmp_REAL(ptr noundef nonnull @.str.3, ptr noundef %35) #6
  %37 = icmp eq i32 %36, 0
  br i1 %37, label %38, label %55

38:                                               ; preds = %33
  call void @llvm.lifetime.start.p0(i64 4, ptr nonnull %8) #6
  %39 = load ptr, ptr %27, align 8
  %40 = call i32 %39(ptr noundef nonnull %4) #6
  %.not42 = icmp eq i32 %40, 0
  br i1 %.not42, label %.thread, label %41

41:                                               ; preds = %38
  %42 = load ptr, ptr %18, align 8
  %43 = call i32 %42(ptr noundef nonnull %4) #6
  %.not43 = icmp eq i32 %43, 118
  br i1 %.not43, label %44, label %.thread

44:                                               ; preds = %41
  %45 = getelementptr inbounds nuw i8, ptr %10, i64 304
  %46 = load ptr, ptr %45, align 8
  call void %46(ptr noundef nonnull %4, ptr noundef nonnull %5) #6
  %47 = load ptr, ptr %18, align 8
  %48 = call i32 %47(ptr noundef nonnull %5) #6
  %.not44 = icmp eq i32 %48, 105
  br i1 %.not44, label %49, label %.thread

49:                                               ; preds = %44
  %50 = load ptr, ptr %22, align 8
  call void %50(ptr noundef nonnull %5, ptr noundef nonnull %8) #6
  %51 = load i32, ptr @dbus_cursor_size, align 4
  %52 = load i32, ptr %8, align 4
  %.not45 = icmp eq i32 %51, %52
  br i1 %.not45, label %54, label %53

53:                                               ; preds = %49
  store i32 %52, ptr @dbus_cursor_size, align 4
  call void @SDL_RedrawCursor() #6
  br label %54

.thread:                                          ; preds = %38, %41, %44
  call void @llvm.lifetime.end.p0(i64 4, ptr nonnull %8) #6
  br label %.sink.split

54:                                               ; preds = %49, %53
  call void @llvm.lifetime.end.p0(i64 4, ptr nonnull %8) #6
  br label %.sink.split

55:                                               ; preds = %33
  %56 = load ptr, ptr %7, align 8
  %57 = call i32 @SDL_strcmp_REAL(ptr noundef nonnull @.str.4, ptr noundef %56) #6
  %58 = icmp eq i32 %57, 0
  br i1 %58, label %59, label %.sink.split

59:                                               ; preds = %55
  call void @llvm.lifetime.start.p0(i64 8, ptr nonnull %9) #6
  store ptr null, ptr %9, align 8
  %60 = load ptr, ptr %27, align 8
  %61 = call i32 %60(ptr noundef nonnull %4) #6
  %.not37 = icmp eq i32 %61, 0
  br i1 %.not37, label %.thread49, label %62

62:                                               ; preds = %59
  %63 = load ptr, ptr %18, align 8
  %64 = call i32 %63(ptr noundef nonnull %4) #6
  %.not38 = icmp eq i32 %64, 118
  br i1 %.not38, label %65, label %.thread49

65:                                               ; preds = %62
  %66 = getelementptr inbounds nuw i8, ptr %10, i64 304
  %67 = load ptr, ptr %66, align 8
  call void %67(ptr noundef nonnull %4, ptr noundef nonnull %5) #6
  %68 = load ptr, ptr %18, align 8
  %69 = call i32 %68(ptr noundef nonnull %5) #6
  %.not39 = icmp eq i32 %69, 115
  br i1 %.not39, label %70, label %.thread49

70:                                               ; preds = %65
  %71 = load ptr, ptr %22, align 8
  call void %71(ptr noundef nonnull %5, ptr noundef nonnull %9) #6
  %72 = load ptr, ptr @dbus_cursor_theme, align 8
  %73 = icmp ne ptr %72, null
  %74 = load ptr, ptr %9, align 8
  %75 = icmp ne ptr %74, null
  %or.cond = select i1 %73, i1 %75, i1 false
  br i1 %or.cond, label %76, label %78

76:                                               ; preds = %70
  %77 = call i32 @SDL_strcmp_REAL(ptr noundef nonnull %72, ptr noundef nonnull %74) #6
  %.not40 = icmp eq i32 %77, 0
  br i1 %.not40, label %84, label %._crit_edge

._crit_edge:                                      ; preds = %76
  %.pre = load ptr, ptr @dbus_cursor_theme, align 8
  br label %78

78:                                               ; preds = %._crit_edge, %70
  %79 = phi ptr [ %.pre, %._crit_edge ], [ %72, %70 ]
  call void @SDL_free_REAL(ptr noundef %79) #6
  %80 = load ptr, ptr %9, align 8
  %.not41 = icmp eq ptr %80, null
  br i1 %.not41, label %83, label %81

81:                                               ; preds = %78
  %82 = call noalias ptr @SDL_strdup_REAL(ptr noundef nonnull %80) #6
  br label %83

83:                                               ; preds = %78, %81
  %storemerge = phi ptr [ %82, %81 ], [ null, %78 ]
  store ptr %storemerge, ptr @dbus_cursor_theme, align 8
  call fastcc void @Wayland_FreeCursorThemes(ptr noundef %2)
  call void @SDL_RedrawCursor() #6
  br label %84

.thread49:                                        ; preds = %59, %62, %65
  call void @llvm.lifetime.end.p0(i64 8, ptr nonnull %9) #6
  br label %.sink.split

84:                                               ; preds = %76, %83
  call void @llvm.lifetime.end.p0(i64 8, ptr nonnull %9) #6
  br label %.sink.split

.sink.split:                                      ; preds = %84, %54, %.thread49, %.thread, %55, %30, %26, %21, %14
  %.128.ph = phi i32 [ 1, %14 ], [ 1, %21 ], [ 1, %26 ], [ 1, %30 ], [ 1, %55 ], [ 1, %.thread ], [ 1, %.thread49 ], [ 0, %54 ], [ 0, %84 ]
  call void @llvm.lifetime.end.p0(i64 8, ptr nonnull %7) #6
  call void @llvm.lifetime.end.p0(i64 8, ptr nonnull %6) #6
  call void @llvm.lifetime.end.p0(i64 72, ptr nonnull %5) #6
  call void @llvm.lifetime.end.p0(i64 72, ptr nonnull %4) #6
  br label %85

85:                                               ; preds = %.sink.split, %3
  %.128 = phi i32 [ 1, %3 ], [ %.128.ph, %.sink.split ]
  ret i32 %.128
}